target datalayout = "e-m:e-p270:32:32-p271:32:32-p272:64:64-i64:64-i128:128-f80:128-n8:16:32:64-S128"
target triple = "x86_64-pc-linux-gnu"

@stderr = external global ptr, align 8
@.str.16 = private unnamed_addr constant [3 x i8] c"%s\00", align 1
@.str.17 = private unnamed_addr constant [12 x i8] c"lua_debug> \00", align 1
@stdin = external global ptr, align 8
@.str.18 = private unnamed_addr constant [6 x i8] c"cont\0A\00", align 1
@.str.19 = private unnamed_addr constant [17 x i8] c"=(debug command)\00", align 1
@.str.20 = private unnamed_addr constant [4 x i8] c"%s\0A\00", align 1

; Function Attrs: nounwind uwtable
define internal i32 @db_debug(ptr noundef %0) #0 {
  %2 = alloca i32, align 4
  %3 = alloca ptr, align 8
  %4 = alloca [250 x i8], align 16
  %5 = alloca i32, align 4
  store ptr %0, ptr %3, align 8, !tbaa !4
  br label %6

6:                                                ; preds = %42, %1
  call void @llvm.lifetime.start.p0(i64 250, ptr %4) #6
  %7 = load ptr, ptr @stderr, align 8, !tbaa !9
  %8 = call i32 (ptr, ptr, ...) @fprintf(ptr noundef %7, ptr noundef @.str.16, ptr noundef @.str.17) #6
  %9 = load ptr, ptr @stderr, align 8, !tbaa !9
  %10 = call i32 @fflush(ptr noundef %9)
  %11 = getelementptr inbounds [250 x i8], ptr %4, i64 0, i64 0
  %12 = load ptr, ptr @stdin, align 8, !tbaa !9
  %13 = call ptr @fgets(ptr noundef %11, i32 noundef 250, ptr noundef %12)
  %14 = icmp eq ptr %13, null
  br i1 %14, label %19, label %15

15:                                               ; preds = %6
  %16 = getelementptr inbounds [250 x i8], ptr %4, i64 0, i64 0
  %17 = call i32 @strcmp(ptr noundef %16, ptr noundef @.str.18) #7
  %18 = icmp eq i32 %17, 0
  br i1 %18, label %19, label %20

19:                                               ; preds = %15, %6
  store i32 0, ptr %2, align 4
  store i32 1, ptr %5, align 4
  br label %40

20:                                               ; preds = %15
  %21 = load ptr, ptr %3, align 8, !tbaa !4
  %22 = getelementptr inbounds [250 x i8], ptr %4, i64 0, i64 0
  %23 = getelementptr inbounds [250 x i8], ptr %4, i64 0, i64 0
  %24 = call i64 @strlen(ptr noundef %23) #7
  %25 = call i32 @luaL_loadbufferx(ptr noundef %21, ptr noundef %22, i64 noundef %24, ptr noundef @.str.19, ptr noundef null)
  %26 = icmp ne i32 %25, 0
  br i1 %26, label %31, label %27

27:                                               ; preds = %20
  %28 = load ptr, ptr %3, align 8, !tbaa !4
  %29 = call i32 @lua_pcallk(ptr noundef %28, i32 noundef 0, i32 noundef 0, i32 noundef 0, i64 noundef 0, ptr noundef null)
  %30 = icmp ne i32 %29, 0
  br i1 %30, label %31, label %38

31:                                               ; preds = %27, %20
  %32 = load ptr, ptr @stderr, align 8, !tbaa !9
  %33 = load ptr, ptr %3, align 8, !tbaa !4
  %34 = call ptr @luaL_tolstring(ptr noundef %33, i32 noundef -1, ptr noundef null)
  %35 = call i32 (ptr, ptr, ...) @fprintf(ptr noundef %32, ptr noundef @.str.20, ptr noundef %34) #6
  %36 = load ptr, ptr @stderr, align 8, !tbaa !9
  %37 = call i32 @fflush(ptr noundef %36)
  br label %38

38:                                               ; preds = %31, %27
  %39 = load ptr, ptr %3, align 8, !tbaa !4
  call void @lua_settop(ptr noundef %39, i32 noundef 0)
  store i32 0, ptr %5, align 4
  br label %40

40:                                               ; preds = %38, %19
  call void @llvm.lifetime.end.p0(i64 250, ptr %4) #6
  %41 = load i32, ptr %5, align 4
  switch i32 %41, label %45 [
    i32 0, label %42
    i32 1, label %43
  ]

42:                                               ; preds = %40
  br label %6

43:                                               ; preds = %40
  %44 = load i32, ptr %2, align 4
  ret i32 %44

45:                                               ; preds = %40
  unreachable
}