; Function Attrs: cold nounwind uwtable
define internal noundef i32 @db_debug(ptr noundef %0) #2 {
  %2 = alloca [250 x i8], align 16
  call void @llvm.lifetime.start.p0(i64 250, ptr nonnull %2) #8
  %3 = load ptr, ptr @stderr, align 8, !tbaa !4
  %4 = tail call i64 @fwrite(ptr nonnull @.str.17, i64 11, i64 1, ptr %3) #9
  %5 = load ptr, ptr @stderr, align 8, !tbaa !4
  %6 = tail call i32 @fflush(ptr noundef %5)
  %7 = load ptr, ptr @stdin, align 8, !tbaa !4
  %8 = call ptr @fgets(ptr noundef nonnull %2, i32 noundef 250, ptr noundef %7)
  %9 = icmp eq ptr %8, null
  br i1 %9, label %._crit_edge, label %.lr.ph

.lr.ph:                                           ; preds = %1, %22
  %bcmp = call i32 @bcmp(ptr noundef nonnull dereferenceable(6) %2, ptr noundef nonnull dereferenceable(6) @.str.18, i64 6)
  %10 = icmp eq i32 %bcmp, 0
  br i1 %10, label %._crit_edge, label %11

11:                                               ; preds = %.lr.ph
  %12 = call i64 @strlen(ptr noundef nonnull dereferenceable(1) %2) #10
  %13 = call i32 @luaL_loadbufferx(ptr noundef %0, ptr noundef nonnull %2, i64 noundef %12, ptr noundef nonnull @.str.19, ptr noundef null) #8
  %.not = icmp eq i32 %13, 0
  br i1 %.not, label %14, label %16

14:                                               ; preds = %11
  %15 = call i32 @lua_pcallk(ptr noundef %0, i32 noundef 0, i32 noundef 0, i32 noundef 0, i64 noundef 0, ptr noundef null) #8
  %.not5 = icmp eq i32 %15, 0
  br i1 %.not5, label %22, label %16

16:                                               ; preds = %14, %11
  %17 = load ptr, ptr @stderr, align 8, !tbaa !4
  %18 = call ptr @luaL_tolstring(ptr noundef %0, i32 noundef -1, ptr noundef null) #8
  %19 = call i32 (ptr, ptr, ...) @fprintf(ptr noundef %17, ptr noundef nonnull @.str.20, ptr noundef %18) #11
  %20 = load ptr, ptr @stderr, align 8, !tbaa !4
  %21 = call i32 @fflush(ptr noundef %20)
  br label %22

22:                                               ; preds = %14, %16
  call void @lua_settop(ptr noundef %0, i32 noundef 0) #8
  call void @llvm.lifetime.end.p0(i64 250, ptr nonnull %2) #8
  call void @llvm.lifetime.start.p0(i64 250, ptr nonnull %2) #8
  %23 = load ptr, ptr @stderr, align 8, !tbaa !4
  %24 = call i64 @fwrite(ptr nonnull @.str.17, i64 11, i64 1, ptr %23) #9
  %25 = load ptr, ptr @stderr, align 8, !tbaa !4
  %26 = call i32 @fflush(ptr noundef %25)
  %27 = load ptr, ptr @stdin, align 8, !tbaa !4
  %28 = call ptr @fgets(ptr noundef nonnull %2, i32 noundef 250, ptr noundef %27)
  %29 = icmp eq ptr %28, null
  br i1 %29, label %._crit_edge, label %.lr.ph

._crit_edge:                                      ; preds = %22, %.lr.ph, %1
  call void @llvm.lifetime.end.p0(i64 250, ptr nonnull %2) #8
  ret i32 0
}